target datalayout = "e-m:e-p270:32:32-p271:32:32-p272:64:64-i64:64-i128:128-f80:128-n8:16:32:64-S128"
target triple = "x86_64-pc-linux-gnu"

%struct.epan_uat = type { ptr, i64, ptr, i8, ptr, i32, ptr, ptr, ptr, ptr, ptr, ptr, ptr, ptr, ptr, i32, ptr, ptr, ptr, i8, ptr, ptr, i8 }
%struct._GArray = type { ptr, i32 }

; Function Attrs: alwaysinline nounwind
define internal ptr @memcpy.inline(ptr noalias %0, ptr noalias %1, i64 %2) #7 {
  %4 = alloca ptr, align 8
  %5 = alloca ptr, align 8
  %6 = alloca i64, align 8
  store ptr %0, ptr %4, align 8
  store ptr %1, ptr %5, align 8
  store i64 %2, ptr %6, align 8
  %7 = load ptr, ptr %4, align 8
  %8 = load ptr, ptr %5, align 8
  %9 = load i64, ptr %6, align 8
  %10 = load ptr, ptr %4, align 8
  %11 = call i64 @llvm.objectsize.i64.p0(ptr %10, i1 false, i1 true, i1 true)
  %12 = call ptr @__memcpy_chk(ptr noundef %7, ptr noundef %8, i64 noundef %9, i64 noundef %11) #13
  ret ptr %12
}

; Function Attrs: null_pointer_is_valid sspstrong uwtable
define void @uat_insert_record_idx(ptr noundef %0, i32 noundef %1, ptr noundef %2) #0 {
  %4 = alloca ptr, align 8
  %5 = alloca i32, align 4
  %6 = alloca ptr, align 8
  %7 = alloca ptr, align 8
  %8 = alloca i8, align 1
  store ptr %0, ptr %4, align 8
  store i32 %1, ptr %5, align 4
  store ptr %2, ptr %6, align 8
  br label %9

9:                                                ; preds = %3
  br label %10

10:                                               ; preds = %9
  %11 = load ptr, ptr %4, align 8
  %12 = getelementptr inbounds nuw %struct.epan_uat, ptr %11, i32 0, i32 17
  %13 = load ptr, ptr %12, align 8
  %14 = load i32, ptr %5, align 4
  %15 = load ptr, ptr %6, align 8
  %16 = call ptr @g_array_insert_vals(ptr noundef %13, i32 noundef %14, ptr noundef %15, i32 noundef 1)
  call void @llvm.lifetime.start.p0(i64 8, ptr %7) #13
  %17 = load ptr, ptr %4, align 8
  %18 = getelementptr inbounds nuw %struct.epan_uat, ptr %17, i32 0, i32 17
  %19 = load ptr, ptr %18, align 8
  %20 = getelementptr inbounds nuw %struct._GArray, ptr %19, i32 0, i32 0
  %21 = load ptr, ptr %20, align 8
  %22 = load ptr, ptr %4, align 8
  %23 = getelementptr inbounds nuw %struct.epan_uat, ptr %22, i32 0, i32 1
  %24 = load i64, ptr %23, align 8
  %25 = load i32, ptr %5, align 4
  %26 = zext i32 %25 to i64
  %27 = mul i64 %24, %26
  %28 = getelementptr i8, ptr %21, i64 %27
  store ptr %28, ptr %7, align 8
  %29 = load ptr, ptr %4, align 8
  %30 = getelementptr inbounds nuw %struct.epan_uat, ptr %29, i32 0, i32 8
  %31 = load ptr, ptr %30, align 8
  %32 = icmp ne ptr %31, null
  br i1 %32, label %33, label %45

33:                                               ; preds = %10
  %34 = load ptr, ptr %4, align 8
  %35 = getelementptr inbounds nuw %struct.epan_uat, ptr %34, i32 0, i32 8
  %36 = load ptr, ptr %35, align 8
  %37 = load ptr, ptr %7, align 8
  %38 = load ptr, ptr %6, align 8
  %39 = load ptr, ptr %4, align 8
  %40 = getelementptr inbounds nuw %struct.epan_uat, ptr %39, i32 0, i32 1
  %41 = load i64, ptr %40, align 8
  %42 = trunc i64 %41 to i32
  %43 = zext i32 %42 to i64
  %44 = call ptr %36(ptr noundef %37, ptr noundef %38, i64 noundef %43)
  br label %54

45:                                               ; preds = %10
  %46 = load ptr, ptr %7, align 8
  %47 = load ptr, ptr %6, align 8
  %48 = load ptr, ptr %4, align 8
  %49 = getelementptr inbounds nuw %struct.epan_uat, ptr %48, i32 0, i32 1
  %50 = load i64, ptr %49, align 8
  %51 = trunc i64 %50 to i32
  %52 = zext i32 %51 to i64
  %53 = call ptr @memcpy.inline(ptr noundef %46, ptr noundef %47, i64 noundef %52) #13
  br label %54

54:                                               ; preds = %45, %33
  call void @llvm.lifetime.start.p0(i64 1, ptr %8) #13
  store i8 0, ptr %8, align 1
  %55 = load ptr, ptr %4, align 8
  %56 = getelementptr inbounds nuw %struct.epan_uat, ptr %55, i32 0, i32 18
  %57 = load ptr, ptr %56, align 8
  %58 = load i32, ptr %5, align 4
  %59 = call ptr @g_array_insert_vals(ptr noundef %57, i32 noundef %58, ptr noundef %8, i32 noundef 1)
  call void @llvm.lifetime.end.p0(i64 1, ptr %8) #13
  call void @llvm.lifetime.end.p0(i64 8, ptr %7) #13
  ret void
}