; Function Attrs: null_pointer_is_valid sspstrong uwtable
define void @uat_insert_record_idx(ptr noundef readonly captures(none) %0, i32 noundef %1, ptr noundef %2) local_unnamed_addr #0 {
  %4 = alloca i8, align 1
  %5 = getelementptr inbounds nuw i8, ptr %0, i64 136
  %6 = load ptr, ptr %5, align 8
  %7 = tail call ptr @g_array_insert_vals(ptr noundef %6, i32 noundef %1, ptr noundef %2, i32 noundef 1)
  %8 = load ptr, ptr %5, align 8
  %9 = load ptr, ptr %8, align 8
  %10 = getelementptr inbounds nuw i8, ptr %0, i64 8
  %11 = load i64, ptr %10, align 8
  %12 = zext i32 %1 to i64
  %13 = mul i64 %11, %12
  %14 = getelementptr i8, ptr %9, i64 %13
  %15 = getelementptr inbounds nuw i8, ptr %0, i64 64
  %16 = load ptr, ptr %15, align 8
  %.not = icmp eq ptr %16, null
  %17 = and i64 %11, 4294967295
  br i1 %.not, label %20, label %18

18:                                               ; preds = %3
  %19 = tail call ptr %16(ptr noundef %14, ptr noundef %2, i64 noundef %17)
  br label %21

20:                                               ; preds = %3
  tail call void @llvm.memcpy.p0.p0.i64(ptr noundef align 1 %14, ptr noundef align 1 %2, i64 noundef %17, i1 noundef false) #17
  br label %21

21:                                               ; preds = %20, %18
  call void @llvm.lifetime.start.p0(i64 1, ptr nonnull %4) #17
  store i8 0, ptr %4, align 1
  %22 = getelementptr inbounds nuw i8, ptr %0, i64 144
  %23 = load ptr, ptr %22, align 8
  %24 = call ptr @g_array_insert_vals(ptr noundef %23, i32 noundef %1, ptr noundef nonnull %4, i32 noundef 1)
  call void @llvm.lifetime.end.p0(i64 1, ptr nonnull %4) #17
  ret void
}